target datalayout = "e-m:e-p270:32:32-p271:32:32-p272:64:64-i64:64-i128:128-f80:128-n8:16:32:64-S128"
target triple = "x86_64-pc-linux-gnu"

%struct.AVTextFormatSection = type { i32, ptr, i32, [12 x i32], ptr, ptr, ptr, ptr, i32, ptr, ptr, ptr, ptr }

@.str.1 = private unnamed_addr constant [2 x i8] c"\0A\00", align 1
@.str.162 = private unnamed_addr constant [9 x i8] c"%c%c%c%c\00", align 1
@.str.163 = private unnamed_addr constant [8 x i8] c"%*c  %s\00", align 1
@.str.164 = private unnamed_addr constant [4 x i8] c"/%s\00", align 1

; Function Attrs: nounwind uwtable
define internal void @print_section(i32 noundef %0, i32 noundef %1) #0 {
  %3 = alloca i32, align 4
  %4 = alloca i32, align 4
  %5 = alloca ptr, align 8
  %6 = alloca ptr, align 8
  store i32 %0, ptr %3, align 4, !tbaa !11
  store i32 %1, ptr %4, align 4, !tbaa !11
  call void @llvm.lifetime.start.p0(i64 8, ptr %5) #14
  call void @llvm.lifetime.start.p0(i64 8, ptr %6) #14
  %7 = load i32, ptr %3, align 4, !tbaa !11
  %8 = zext i32 %7 to i64
  %9 = getelementptr inbounds nuw [66 x %struct.AVTextFormatSection], ptr @sections, i64 0, i64 %8
  store ptr %9, ptr %6, align 8, !tbaa !60
  %10 = load ptr, ptr %6, align 8, !tbaa !60
  %11 = getelementptr inbounds nuw %struct.AVTextFormatSection, ptr %10, i32 0, i32 2
  %12 = load i32, ptr %11, align 8, !tbaa !121
  %13 = and i32 %12, 1
  %14 = icmp ne i32 %13, 0
  %15 = select i1 %14, i32 87, i32 46
  %16 = load ptr, ptr %6, align 8, !tbaa !60
  %17 = getelementptr inbounds nuw %struct.AVTextFormatSection, ptr %16, i32 0, i32 2
  %18 = load i32, ptr %17, align 8, !tbaa !121
  %19 = and i32 %18, 2
  %20 = icmp ne i32 %19, 0
  %21 = select i1 %20, i32 65, i32 46
  %22 = load ptr, ptr %6, align 8, !tbaa !60
  %23 = getelementptr inbounds nuw %struct.AVTextFormatSection, ptr %22, i32 0, i32 2
  %24 = load i32, ptr %23, align 8, !tbaa !121
  %25 = and i32 %24, 4
  %26 = icmp ne i32 %25, 0
  %27 = select i1 %26, i32 86, i32 46
  %28 = load ptr, ptr %6, align 8, !tbaa !60
  %29 = getelementptr inbounds nuw %struct.AVTextFormatSection, ptr %28, i32 0, i32 2
  %30 = load i32, ptr %29, align 8, !tbaa !121
  %31 = and i32 %30, 8
  %32 = icmp ne i32 %31, 0
  %33 = select i1 %32, i32 84, i32 46
  %34 = call i32 (ptr, ...) @printf(ptr noundef @.str.162, i32 noundef %15, i32 noundef %21, i32 noundef %27, i32 noundef %33)
  %35 = load i32, ptr %4, align 4, !tbaa !11
  %36 = mul nsw i32 %35, 4
  %37 = load ptr, ptr %6, align 8, !tbaa !60
  %38 = getelementptr inbounds nuw %struct.AVTextFormatSection, ptr %37, i32 0, i32 1
  %39 = load ptr, ptr %38, align 8, !tbaa !122
  %40 = call i32 (ptr, ...) @printf(ptr noundef @.str.163, i32 noundef %36, i32 noundef 32, ptr noundef %39)
  %41 = load ptr, ptr %6, align 8, !tbaa !60
  %42 = getelementptr inbounds nuw %struct.AVTextFormatSection, ptr %41, i32 0, i32 5
  %43 = load ptr, ptr %42, align 8, !tbaa !123
  %44 = icmp ne ptr %43, null
  br i1 %44, label %45, label %50

45:                                               ; preds = %2
  %46 = load ptr, ptr %6, align 8, !tbaa !60
  %47 = getelementptr inbounds nuw %struct.AVTextFormatSection, ptr %46, i32 0, i32 5
  %48 = load ptr, ptr %47, align 8, !tbaa !123
  %49 = call i32 (ptr, ...) @printf(ptr noundef @.str.164, ptr noundef %48)
  br label %50

50:                                               ; preds = %45, %2
  %51 = call i32 (ptr, ...) @printf(ptr noundef @.str.1)
  %52 = load ptr, ptr %6, align 8, !tbaa !60
  %53 = getelementptr inbounds nuw %struct.AVTextFormatSection, ptr %52, i32 0, i32 3
  %54 = getelementptr inbounds [12 x i32], ptr %53, i64 0, i64 0
  store ptr %54, ptr %5, align 8, !tbaa !65
  br label %55

55:                                               ; preds = %64, %50
  %56 = load ptr, ptr %5, align 8, !tbaa !65
  %57 = load i32, ptr %56, align 4, !tbaa !11
  %58 = icmp ne i32 %57, -1
  br i1 %58, label %59, label %67

59:                                               ; preds = %55
  %60 = load ptr, ptr %5, align 8, !tbaa !65
  %61 = load i32, ptr %60, align 4, !tbaa !11
  %62 = load i32, ptr %4, align 4, !tbaa !11
  %63 = add nsw i32 %62, 1
  call void @print_section(i32 noundef %61, i32 noundef %63)
  br label %64

64:                                               ; preds = %59
  %65 = load ptr, ptr %5, align 8, !tbaa !65
  %66 = getelementptr inbounds nuw i32, ptr %65, i32 1
  store ptr %66, ptr %5, align 8, !tbaa !65
  br label %55, !llvm.loop !124

67:                                               ; preds = %55
  call void @llvm.lifetime.end.p0(i64 8, ptr %6) #14
  call void @llvm.lifetime.end.p0(i64 8, ptr %5) #14
  ret void
}