; Function Attrs: nofree nounwind uwtable
define internal fastcc void @print_section(i32 noundef range(i32 0, -1) %0, i32 noundef %1) unnamed_addr #8 {
  %3 = zext i32 %0 to i64
  %4 = getelementptr inbounds nuw [66 x %struct.AVTextFormatSection], ptr @sections, i64 0, i64 %3
  %5 = getelementptr inbounds nuw i8, ptr %4, i64 16
  %6 = load i32, ptr %5, align 16, !tbaa !149
  %7 = and i32 %6, 1
  %.not = icmp eq i32 %7, 0
  %8 = select i1 %.not, i32 46, i32 87
  %9 = and i32 %6, 2
  %.not15 = icmp eq i32 %9, 0
  %10 = select i1 %.not15, i32 46, i32 65
  %11 = and i32 %6, 4
  %.not16 = icmp eq i32 %11, 0
  %12 = select i1 %.not16, i32 46, i32 86
  %13 = and i32 %6, 8
  %.not17 = icmp eq i32 %13, 0
  %14 = select i1 %.not17, i32 46, i32 84
  %15 = tail call i32 (ptr, ...) @printf(ptr noundef nonnull dereferenceable(1) @.str.162, i32 noundef %8, i32 noundef %10, i32 noundef %12, i32 noundef %14)
  %16 = shl nsw i32 %1, 2
  %17 = getelementptr inbounds nuw i8, ptr %4, i64 8
  %18 = load ptr, ptr %17, align 8, !tbaa !130
  %19 = tail call i32 (ptr, ...) @printf(ptr noundef nonnull dereferenceable(1) @.str.163, i32 noundef %16, i32 noundef 32, ptr noundef %18)
  %20 = getelementptr inbounds nuw i8, ptr %4, i64 80
  %21 = load ptr, ptr %20, align 16, !tbaa !131
  %.not18 = icmp eq ptr %21, null
  br i1 %.not18, label %24, label %22

22:                                               ; preds = %2
  %23 = tail call i32 (ptr, ...) @printf(ptr noundef nonnull dereferenceable(1) @.str.164, ptr noundef nonnull %21)
  br label %24

24:                                               ; preds = %22, %2
  %putchar = tail call i32 @putchar(i32 10)
  %25 = getelementptr inbounds nuw i8, ptr %4, i64 20
  %26 = load i32, ptr %25, align 4, !tbaa !11
  %.not1920 = icmp eq i32 %26, -1
  br i1 %.not1920, label %._crit_edge, label %.lr.ph

.lr.ph:                                           ; preds = %24
  %27 = add nsw i32 %1, 1
  br label %28

28:                                               ; preds = %.lr.ph, %28
  %29 = phi i32 [ %26, %.lr.ph ], [ %31, %28 ]
  %.021 = phi ptr [ %25, %.lr.ph ], [ %30, %28 ]
  tail call fastcc void @print_section(i32 noundef %29, i32 noundef %27)
  %30 = getelementptr inbounds nuw i8, ptr %.021, i64 4
  %31 = load i32, ptr %30, align 4, !tbaa !11
  %.not19 = icmp eq i32 %31, -1
  br i1 %.not19, label %._crit_edge, label %28, !llvm.loop !150

._crit_edge:                                      ; preds = %28, %24
  ret void
}